; Function Attrs: nofree nosync nounwind memory(readwrite, inaccessiblemem: none) uwtable
define i32 @Gia_ManSifArea_rec(ptr noundef readonly captures(none) %0, ptr noundef %1, ptr noundef readonly captures(none) %2, i32 noundef %3) local_unnamed_addr #5 {
  %5 = getelementptr inbounds nuw i8, ptr %0, i64 616
  %6 = load ptr, ptr %5, align 8, !tbaa !3
  %7 = getelementptr i8, ptr %0, i64 32
  %.val.i.i = load ptr, ptr %7, align 8, !tbaa !28
  %8 = ptrtoint ptr %1 to i64
  %9 = ptrtoint ptr %.val.i.i to i64
  %10 = sub i64 %8, %9
  %11 = sdiv exact i64 %10, 12
  %sext.i.i = shl i64 %11, 32
  %12 = ashr exact i64 %sext.i.i, 30
  %13 = getelementptr inbounds i8, ptr %6, i64 %12
  %14 = load i32, ptr %13, align 4, !tbaa !29
  %15 = getelementptr inbounds nuw i8, ptr %0, i64 176
  %16 = load i32, ptr %15, align 8, !tbaa !30
  %.not.i = icmp eq i32 %14, %16
  br i1 %.not.i, label %Gia_ObjUpdateTravIdCurrent.exit, label %17

17:                                               ; preds = %4
  store i32 %16, ptr %13, align 4, !tbaa !29
  %.val24 = load i64, ptr %1, align 4
  %18 = and i64 %.val24, 2147483648
  %.not.i25 = icmp ne i64 %18, 0
  %19 = and i64 %.val24, 536870911
  %20 = icmp eq i64 %19, 536870911
  %narrow.i.not = or i1 %.not.i25, %20
  br i1 %narrow.i.not, label %Gia_ObjUpdateTravIdCurrent.exit, label %21

21:                                               ; preds = %17
  %22 = trunc i64 %11 to i32
  %23 = mul nsw i32 %3, %22
  %24 = getelementptr i8, ptr %2, i64 8
  %.val23 = load ptr, ptr %24, align 8, !tbaa !39
  %25 = sext i32 %23 to i64
  %26 = getelementptr inbounds i32, ptr %.val23, i64 %25
  %27 = load i32, ptr %26, align 4, !tbaa !29
  %.not2128 = icmp slt i32 %27, 1
  br i1 %.not2128, label %Gia_ObjUpdateTravIdCurrent.exit, label %.lr.ph

.lr.ph:                                           ; preds = %21, %.lr.ph
  %indvars.iv = phi i64 [ %indvars.iv.next, %.lr.ph ], [ 1, %21 ]
  %.030 = phi i32 [ %34, %.lr.ph ], [ 1, %21 ]
  %28 = getelementptr inbounds nuw i32, ptr %26, i64 %indvars.iv
  %29 = load i32, ptr %28, align 4, !tbaa !29
  %30 = ashr i32 %29, 8
  %.val22 = load ptr, ptr %7, align 8, !tbaa !28
  %31 = sext i32 %30 to i64
  %32 = getelementptr inbounds %struct.Gia_Obj_t_, ptr %.val22, i64 %31
  %33 = tail call i32 @Gia_ManSifArea_rec(ptr noundef nonnull %0, ptr noundef %32, ptr noundef %2, i32 noundef %3)
  %34 = add nsw i32 %33, %.030
  %indvars.iv.next = add nuw nsw i64 %indvars.iv, 1
  %35 = load i32, ptr %26, align 4, !tbaa !29
  %36 = sext i32 %35 to i64
  %.not21.not = icmp slt i64 %indvars.iv, %36
  br i1 %.not21.not, label %.lr.ph, label %Gia_ObjUpdateTravIdCurrent.exit, !llvm.loop !94

Gia_ObjUpdateTravIdCurrent.exit:                  ; preds = %.lr.ph, %21, %4, %17
  %.018 = phi i32 [ 0, %17 ], [ 0, %4 ], [ 1, %21 ], [ %34, %.lr.ph ]
  ret i32 %.018
}